target datalayout = "e-m:e-p270:32:32-p271:32:32-p272:64:64-i64:64-i128:128-f80:128-n8:16:32:64-S128"
target triple = "x86_64-pc-linux-gnu"

; Function Attrs: nounwind sspstrong uwtable
define internal i64 @string_to_c(i64 noundef %0) #0 {
  %2 = alloca i64, align 8
  %3 = alloca i64, align 8
  store i64 %0, ptr %2, align 8, !tbaa !13
  call void @llvm.lifetime.start.p0(i64 8, ptr %3) #23
  %4 = load i64, ptr %2, align 8, !tbaa !13
  call void @rb_must_asciicompat(i64 noundef %4)
  %5 = load i64, ptr %2, align 8, !tbaa !13
  %6 = call ptr @rb_str_fill_terminator(i64 noundef %5, i32 noundef 1)
  %7 = call i32 @parse_comp(ptr noundef %6, i32 noundef 0, ptr noundef %3)
  %8 = load i64, ptr %3, align 8, !tbaa !13
  call void @llvm.lifetime.end.p0(i64 8, ptr %3) #23
  ret i64 %8
}