; Function Attrs: nounwind sspstrong uwtable
define internal i64 @string_to_c(i64 noundef %0) #0 {
  %2 = alloca i64, align 8
  call void @llvm.lifetime.start.p0(i64 8, ptr nonnull %2) #17
  tail call void @rb_must_asciicompat(i64 noundef %0) #17
  %3 = tail call ptr @rb_str_fill_terminator(i64 noundef %0, i32 noundef 1) #17
  %4 = call fastcc i32 @parse_comp(ptr noundef %3, i32 noundef 0, ptr noundef %2)
  %5 = load i64, ptr %2, align 8, !tbaa !11
  call void @llvm.lifetime.end.p0(i64 8, ptr nonnull %2) #17
  ret i64 %5
}